target datalayout = "e-m:e-p270:32:32-p271:32:32-p272:64:64-i64:64-i128:128-f80:128-n8:16:32:64-S128"
target triple = "x86_64-pc-linux-gnu"

; Function Attrs: alwaysinline nounwind
define internal ptr @memset.inline(ptr %0, i32 %1, i64 %2) #3 {
  %4 = alloca ptr, align 8
  %5 = alloca i32, align 4
  %6 = alloca i64, align 8
  store ptr %0, ptr %4, align 8
  store i32 %1, ptr %5, align 4
  store i64 %2, ptr %6, align 8
  %7 = load ptr, ptr %4, align 8
  %8 = load i32, ptr %5, align 4
  %9 = load i64, ptr %6, align 8
  %10 = load ptr, ptr %4, align 8
  %11 = call i64 @llvm.objectsize.i64.p0(ptr %10, i1 false, i1 true, i1 true)
  %12 = call ptr @__memset_chk(ptr noundef %7, i32 noundef %8, i64 noundef %9, i64 noundef %11) #9
  ret ptr %12
}

; Function Attrs: null_pointer_is_valid sspstrong uwtable
define void @crypt_des_ecb(ptr noundef %0, ptr noundef %1, ptr noundef %2) #0 {
  %4 = alloca ptr, align 8
  %5 = alloca ptr, align 8
  %6 = alloca ptr, align 8
  %7 = alloca [8 x i8], align 1
  %8 = alloca ptr, align 8
  %9 = alloca i32, align 4
  store ptr %0, ptr %4, align 8
  store ptr %1, ptr %5, align 8
  store ptr %2, ptr %6, align 8
  call void @llvm.lifetime.start.p0(i64 8, ptr %7) #9
  call void @llvm.lifetime.start.p0(i64 8, ptr %8) #9
  %10 = load ptr, ptr %4, align 8
  %11 = call ptr @memset.inline(ptr noundef %10, i32 noundef 0, i64 noundef 8) #9
  %12 = load ptr, ptr %6, align 8
  %13 = getelementptr i8, ptr %12, i64 0
  %14 = load i8, ptr %13, align 1
  %15 = getelementptr [8 x i8], ptr %7, i64 0, i64 0
  store i8 %14, ptr %15, align 1
  %16 = load ptr, ptr %6, align 8
  %17 = getelementptr i8, ptr %16, i64 0
  %18 = load i8, ptr %17, align 1
  %19 = zext i8 %18 to i32
  %20 = shl i32 %19, 7
  %21 = load ptr, ptr %6, align 8
  %22 = getelementptr i8, ptr %21, i64 1
  %23 = load i8, ptr %22, align 1
  %24 = zext i8 %23 to i32
  %25 = ashr i32 %24, 1
  %26 = or i32 %20, %25
  %27 = trunc i32 %26 to i8
  %28 = getelementptr [8 x i8], ptr %7, i64 0, i64 1
  store i8 %27, ptr %28, align 1
  %29 = load ptr, ptr %6, align 8
  %30 = getelementptr i8, ptr %29, i64 1
  %31 = load i8, ptr %30, align 1
  %32 = zext i8 %31 to i32
  %33 = shl i32 %32, 6
  %34 = load ptr, ptr %6, align 8
  %35 = getelementptr i8, ptr %34, i64 2
  %36 = load i8, ptr %35, align 1
  %37 = zext i8 %36 to i32
  %38 = ashr i32 %37, 2
  %39 = or i32 %33, %38
  %40 = trunc i32 %39 to i8
  %41 = getelementptr [8 x i8], ptr %7, i64 0, i64 2
  store i8 %40, ptr %41, align 1
  %42 = load ptr, ptr %6, align 8
  %43 = getelementptr i8, ptr %42, i64 2
  %44 = load i8, ptr %43, align 1
  %45 = zext i8 %44 to i32
  %46 = shl i32 %45, 5
  %47 = load ptr, ptr %6, align 8
  %48 = getelementptr i8, ptr %47, i64 3
  %49 = load i8, ptr %48, align 1
  %50 = zext i8 %49 to i32
  %51 = ashr i32 %50, 3
  %52 = or i32 %46, %51
  %53 = trunc i32 %52 to i8
  %54 = getelementptr [8 x i8], ptr %7, i64 0, i64 3
  store i8 %53, ptr %54, align 1
  %55 = load ptr, ptr %6, align 8
  %56 = getelementptr i8, ptr %55, i64 3
  %57 = load i8, ptr %56, align 1
  %58 = zext i8 %57 to i32
  %59 = shl i32 %58, 4
  %60 = load ptr, ptr %6, align 8
  %61 = getelementptr i8, ptr %60, i64 4
  %62 = load i8, ptr %61, align 1
  %63 = zext i8 %62 to i32
  %64 = ashr i32 %63, 4
  %65 = or i32 %59, %64
  %66 = trunc i32 %65 to i8
  %67 = getelementptr [8 x i8], ptr %7, i64 0, i64 4
  store i8 %66, ptr %67, align 1
  %68 = load ptr, ptr %6, align 8
  %69 = getelementptr i8, ptr %68, i64 4
  %70 = load i8, ptr %69, align 1
  %71 = zext i8 %70 to i32
  %72 = shl i32 %71, 3
  %73 = load ptr, ptr %6, align 8
  %74 = getelementptr i8, ptr %73, i64 5
  %75 = load i8, ptr %74, align 1
  %76 = zext i8 %75 to i32
  %77 = ashr i32 %76, 5
  %78 = or i32 %72, %77
  %79 = trunc i32 %78 to i8
  %80 = getelementptr [8 x i8], ptr %7, i64 0, i64 5
  store i8 %79, ptr %80, align 1
  %81 = load ptr, ptr %6, align 8
  %82 = getelementptr i8, ptr %81, i64 5
  %83 = load i8, ptr %82, align 1
  %84 = zext i8 %83 to i32
  %85 = shl i32 %84, 2
  %86 = load ptr, ptr %6, align 8
  %87 = getelementptr i8, ptr %86, i64 6
  %88 = load i8, ptr %87, align 1
  %89 = zext i8 %88 to i32
  %90 = ashr i32 %89, 6
  %91 = or i32 %85, %90
  %92 = trunc i32 %91 to i8
  %93 = getelementptr [8 x i8], ptr %7, i64 0, i64 6
  store i8 %92, ptr %93, align 1
  %94 = load ptr, ptr %6, align 8
  %95 = getelementptr i8, ptr %94, i64 6
  %96 = load i8, ptr %95, align 1
  %97 = zext i8 %96 to i32
  %98 = shl i32 %97, 1
  %99 = trunc i32 %98 to i8
  %100 = getelementptr [8 x i8], ptr %7, i64 0, i64 7
  store i8 %99, ptr %100, align 1
  %101 = call i32 @gcry_cipher_open(ptr noundef %8, i32 noundef 302, i32 noundef 1, i32 noundef 0)
  %102 = icmp ne i32 %101, 0
  br i1 %102, label %103, label %104

103:                                              ; preds = %3
  store i32 1, ptr %9, align 4
  br label %117

104:                                              ; preds = %3
  %105 = load ptr, ptr %8, align 8
  %106 = getelementptr inbounds [8 x i8], ptr %7, i64 0, i64 0
  %107 = call i32 @gcry_cipher_setkey(ptr noundef %105, ptr noundef %106, i64 noundef 8)
  %108 = icmp ne i32 %107, 0
  br i1 %108, label %109, label %111

109:                                              ; preds = %104
  %110 = load ptr, ptr %8, align 8
  call void @gcry_cipher_close(ptr noundef %110)
  store i32 1, ptr %9, align 4
  br label %117

111:                                              ; preds = %104
  %112 = load ptr, ptr %8, align 8
  %113 = load ptr, ptr %4, align 8
  %114 = load ptr, ptr %5, align 8
  %115 = call i32 @gcry_cipher_encrypt(ptr noundef %112, ptr noundef %113, i64 noundef 8, ptr noundef %114, i64 noundef 8)
  %116 = load ptr, ptr %8, align 8
  call void @gcry_cipher_close(ptr noundef %116)
  store i32 0, ptr %9, align 4
  br label %117

117:                                              ; preds = %111, %109, %103
  call void @llvm.lifetime.end.p0(i64 8, ptr %8) #9
  call void @llvm.lifetime.end.p0(i64 8, ptr %7) #9
  %118 = load i32, ptr %9, align 4
  switch i32 %118, label %120 [
    i32 0, label %119
    i32 1, label %119
  ]

119:                                              ; preds = %117, %117
  ret void

120:                                              ; preds = %117
  unreachable
}