; Function Attrs: null_pointer_is_valid sspstrong uwtable
define void @crypt_des_ecb(ptr noundef %0, ptr noundef %1, ptr noundef readonly captures(none) %2) local_unnamed_addr #0 {
  %4 = alloca [8 x i8], align 1
  %5 = alloca ptr, align 8
  call void @llvm.lifetime.start.p0(i64 8, ptr nonnull %4) #10
  call void @llvm.lifetime.start.p0(i64 8, ptr nonnull %5) #10
  store i64 0, ptr %0, align 1
  %6 = load i8, ptr %2, align 1
  store i8 %6, ptr %4, align 1
  %7 = getelementptr i8, ptr %2, i64 1
  %8 = load i8, ptr %7, align 1
  %9 = tail call i8 @llvm.fshl.i8(i8 %6, i8 %8, i8 7)
  %10 = getelementptr inbounds nuw i8, ptr %4, i64 1
  store i8 %9, ptr %10, align 1
  %11 = getelementptr i8, ptr %2, i64 2
  %12 = load i8, ptr %11, align 1
  %13 = tail call i8 @llvm.fshl.i8(i8 %8, i8 %12, i8 6)
  %14 = getelementptr inbounds nuw i8, ptr %4, i64 2
  store i8 %13, ptr %14, align 1
  %15 = getelementptr i8, ptr %2, i64 3
  %16 = load i8, ptr %15, align 1
  %17 = tail call i8 @llvm.fshl.i8(i8 %12, i8 %16, i8 5)
  %18 = getelementptr inbounds nuw i8, ptr %4, i64 3
  store i8 %17, ptr %18, align 1
  %19 = getelementptr i8, ptr %2, i64 4
  %20 = load i8, ptr %19, align 1
  %21 = tail call i8 @llvm.fshl.i8(i8 %16, i8 %20, i8 4)
  %22 = getelementptr inbounds nuw i8, ptr %4, i64 4
  store i8 %21, ptr %22, align 1
  %23 = getelementptr i8, ptr %2, i64 5
  %24 = load i8, ptr %23, align 1
  %25 = tail call i8 @llvm.fshl.i8(i8 %20, i8 %24, i8 3)
  %26 = getelementptr inbounds nuw i8, ptr %4, i64 5
  store i8 %25, ptr %26, align 1
  %27 = getelementptr i8, ptr %2, i64 6
  %28 = load i8, ptr %27, align 1
  %29 = tail call i8 @llvm.fshl.i8(i8 %24, i8 %28, i8 2)
  %30 = getelementptr inbounds nuw i8, ptr %4, i64 6
  store i8 %29, ptr %30, align 1
  %31 = shl i8 %28, 1
  %32 = getelementptr inbounds nuw i8, ptr %4, i64 7
  store i8 %31, ptr %32, align 1
  %33 = call i32 @gcry_cipher_open(ptr noundef nonnull %5, i32 noundef 302, i32 noundef 1, i32 noundef 0)
  %.not = icmp eq i32 %33, 0
  br i1 %.not, label %34, label %41

34:                                               ; preds = %3
  %35 = load ptr, ptr %5, align 8
  %36 = call i32 @gcry_cipher_setkey(ptr noundef %35, ptr noundef nonnull %4, i64 noundef 8)
  %.not17 = icmp eq i32 %36, 0
  %37 = load ptr, ptr %5, align 8
  br i1 %.not17, label %38, label %.sink.split

38:                                               ; preds = %34
  %39 = call i32 @gcry_cipher_encrypt(ptr noundef %37, ptr noundef %0, i64 noundef 8, ptr noundef %1, i64 noundef 8)
  %40 = load ptr, ptr %5, align 8
  br label %.sink.split

.sink.split:                                      ; preds = %34, %38
  %.sink = phi ptr [ %40, %38 ], [ %37, %34 ]
  call void @gcry_cipher_close(ptr noundef %.sink)
  br label %41

41:                                               ; preds = %.sink.split, %3
  call void @llvm.lifetime.end.p0(i64 8, ptr nonnull %5) #10
  call void @llvm.lifetime.end.p0(i64 8, ptr nonnull %4) #10
  ret void
}